target datalayout = "e-m:e-p270:32:32-p271:32:32-p272:64:64-i64:64-i128:128-f80:128-n8:16:32:64-S128"
target triple = "x86_64-pc-linux-gnu"

%struct._zval_struct = type { %union._zend_value, %union.anon, %union.anon.2 }
%union._zend_value = type { i64 }
%union.anon = type { i32 }
%union.anon.2 = type { i32 }
%struct._zend_array = type { %struct._zend_refcounted_h, %union.anon.4, i32, %union.anon.6, i32, i32, i32, i32, i64, ptr }
%struct._zend_refcounted_h = type { i32, %union.anon.3 }
%union.anon.3 = type { i32 }
%union.anon.4 = type { i32 }
%union.anon.6 = type { ptr }

@configuration_hash = internal global %struct._zend_array zeroinitializer, align 8
@has_per_host_config = internal global i32 0, align 4

; Function Attrs: nounwind uwtable
define dso_local void @php_ini_activate_per_host_config(ptr noundef %0, i64 noundef %1) #0 {
  %3 = alloca ptr, align 8
  %4 = alloca i64, align 8
  %5 = alloca ptr, align 8
  store ptr %0, ptr %3, align 8, !tbaa !64
  store i64 %1, ptr %4, align 8, !tbaa !71
  call void @llvm.lifetime.start.p0(i64 8, ptr %5) #14
  %6 = load i32, ptr @has_per_host_config, align 4, !tbaa !20
  %7 = icmp ne i32 %6, 0
  br i1 %7, label %8, label %24

8:                                                ; preds = %2
  %9 = load ptr, ptr %3, align 8, !tbaa !64
  %10 = icmp ne ptr %9, null
  br i1 %10, label %11, label %24

11:                                               ; preds = %8
  %12 = load i64, ptr %4, align 8, !tbaa !71
  %13 = icmp ne i64 %12, 0
  br i1 %13, label %14, label %24

14:                                               ; preds = %11
  %15 = load ptr, ptr %3, align 8, !tbaa !64
  %16 = load i64, ptr %4, align 8, !tbaa !71
  %17 = call ptr @zend_hash_str_find(ptr noundef @configuration_hash, ptr noundef %15, i64 noundef %16)
  store ptr %17, ptr %5, align 8, !tbaa !55
  %18 = icmp ne ptr %17, null
  br i1 %18, label %19, label %23

19:                                               ; preds = %14
  %20 = load ptr, ptr %5, align 8, !tbaa !55
  %21 = getelementptr inbounds nuw %struct._zval_struct, ptr %20, i32 0, i32 0
  %22 = load ptr, ptr %21, align 8, !tbaa !51
  call void @php_ini_activate_config(ptr noundef %22, i32 noundef 4, i32 noundef 4)
  br label %23

23:                                               ; preds = %19, %14
  br label %24

24:                                               ; preds = %23, %11, %8, %2
  call void @llvm.lifetime.end.p0(i64 8, ptr %5) #14
  ret void
}