; Function Attrs: nounwind uwtable
define dso_local void @php_ini_activate_per_host_config(ptr noundef %0, i64 noundef %1) local_unnamed_addr #0 {
  %.b = load i1, ptr @has_per_host_config, align 4
  %3 = icmp ne ptr %0, null
  %or.cond = and i1 %3, %.b
  %4 = icmp ne i64 %1, 0
  %or.cond3 = and i1 %4, %or.cond
  br i1 %or.cond3, label %5, label %9

5:                                                ; preds = %2
  %6 = tail call ptr @zend_hash_str_find(ptr noundef nonnull @configuration_hash, ptr noundef nonnull %0, i64 noundef %1) #16
  %.not = icmp eq ptr %6, null
  br i1 %.not, label %9, label %7

7:                                                ; preds = %5
  %8 = load ptr, ptr %6, align 8, !tbaa !47
  tail call void @php_ini_activate_config(ptr noundef %8, i32 noundef 4, i32 noundef 4)
  br label %9

9:                                                ; preds = %5, %7, %2
  ret void
}